Certificate:
    Data:
        Version: 3 (0x2)
        Serial Number: 4287 (0x10bf)
        Signature Algorithm: sha256WithRSAEncryption
        Issuer: C=AU, ST=Some-State, O=Internet Widgits Pty Ltd
        Validity
            Not Before: May  5 16:34:29 2023 GMT
            Not After : May  2 16:34:29 2033 GMT
        Subject: C=US, O=FEUP, CN=adminbot.mc.ax
        Subject Public Key Info:
            Public Key Algorithm: rsaEncryption
                Public-Key: (2048 bit)
                Modulus:
                    00:9b:6e:a6:19:fd:c3:04:57:79:f6:75:01:91:ca:
                    96:18:dc:63:7b:8f:6f:e4:90:15:e9:ae:20:f0:07:
                    1f:8e:aa:bd:1b:1a:66:7b:f7:be:1f:ec:ab:1f:03:
                    c8:f5:86:4d:9e:0b:cf:05:c7:35:e1:2e:05:d6:ca:
                    de:3a:9b:da:fa:99:90:da:1f:2b:06:77:18:ed:f8:
                    ff:cd:d8:c9:1c:97:e3:b3:25:5a:28:e1:42:ec:30:
                    d6:a5:d5:46:f3:80:a3:71:2d:a3:fd:66:ff:ee:64:
                    49:88:4e:08:12:7b:68:80:c4:e4:7e:54:b1:80:66:
                    95:9a:d8:08:1b:d6:88:e2:2c:93:a9:f1:e9:ef:68:
                    76:d7:1d:e6:00:04:01:84:ec:99:3d:c0:2a:1f:d1:
                    ee:69:44:39:01:12:0d:85:39:0b:d5:6a:ee:7f:36:
                    7d:43:f5:05:7e:5c:da:02:ce:81:84:97:78:b1:eb:
                    0e:aa:5c:37:0a:ad:52:7c:56:f3:d5:b0:87:41:c4:
                    c1:63:68:d4:16:42:c1:64:88:91:51:d8:3a:d3:ab:
                    97:3f:4c:ec:bd:f2:99:40:ac:fb:0d:2f:71:1e:c2:
                    0d:0c:7f:0e:f3:ee:49:21:8b:e8:b9:a8:4c:e2:46:
                    cb:bd:dc:f9:88:fa:8a:eb:0f:ff:d0:ff:31:e9:bc:
                    03:07
                Exponent: 65537 (0x10001)
        X509v3 extensions:
            X509v3 Basic Constraints: 
                CA:FALSE
            X509v3 Subject Key Identifier: 
                AD:0B:C1:D9:FA:EB:7C:26:94:72:A8:7B:27:1F:A0:66:41:A5:12:DE
            X509v3 Authority Key Identifier: 
                8E:AD:DA:BA:16:1A:1C:11:E2:02:DC:0B:67:9C:36:FA:7D:EC:38:2D
            X509v3 Subject Alternative Name: 
                DNS:adminbot.mc.ax
    Signature Algorithm: sha256WithRSAEncryption
    Signature Value:
        04:90:1c:20:8c:bd:b2:db:85:60:7c:10:b9:df:af:19:99:df:
        40:1f:24:72:af:5d:78:88:19:df:af:7b:cb:78:71:a2:d1:3a:
        c7:48:e6:9c:64:89:54:71:a9:b5:e6:2c:36:be:8b:c9:f5:ea:
        7d:5b:f5:86:88:64:48:bc:2f:4f:1f:f4:a4:87:e0:15:79:e1:
        1a:96:ef:ac:4d:a0:14:92:e8:06:fe:21:d5:da:74:4c:bd:6d:
        69:2a:8e:7f:f2:11:65:6b:0b:df:d6:0b:92:ec:28:0f:63:71:
        7d:a5:5a:ae:54:54:41:ad:89:eb:83:f7:74:7e:6b:db:19:d5:
        bc:83:3d:5a:dd:5d:29:fc:f3:07:5c:f9:b3:69:8e:b2:50:a5:
        5a:6a:d9:74:a0:34:9f:91:f0:69:f2:fc:50:6e:7c:09:08:1d:
        4c:d4:d2:a5:6e:fb:1c:1a:fe:5b:fd:51:01:5f:cc:91:61:d7:
        4a:2b:55:cc:e3:3b:88:67:10:1b:44:20:7b:17:b8:61:89:41:
        07:36:b9:0d:c5:f2:5d:52:dd:15:e4:6d:fb:7c:38:9f:8b:a3:
        50:85:a8:15:35:c6:1d:85:99:02:98:e5:6e:69:ed:62:6e:77:
        4e:c1:72:31:cd:e3:52:9c:d8:9d:36:a5:07:09:9c:3d:c8:73:
        28:47:c5:5f:74:a3:0c:1a:e2:1b:5e:ad:00:27:09:4b:6b:88:
        e6:d1:db:93:8c:8f:58:45:62:34:0c:cc:0f:2b:58:0e:8b:47:
        e1:2c:f7:6d:01:18:c2:fc:0a:c0:15:e0:64:19:6c:06:05:1d:
        15:c4:78:0c:6d:d4:d4:d9:f1:eb:f8:fe:c5:bf:68:0a:42:54:
        7a:f6:d0:5c:ba:65:c0:2f:d6:6b:0b:3c:ad:33:ce:6c:fd:6c:
        23:5e:52:29:a7:ce:4d:ba:30:12:0b:de:3d:03:e0:1e:4e:59:
        0e:cf:de:91:4a:98:90:d3:07:79:f1:b3:67:dc:c6:c2:21:ef:
        cd:ca:47:c8:62:19:cd:e3:5e:f6:a9:dd:39:dd:42:9e:80:b1:
        95:af:ef:b0:b4:b3:9a:6d:c0:8d:18:6c:45:1c:f3:1c:37:21:
        c7:cd:a8:b3:cf:2d:86:4a:82:42:14:45:76:01:d6:24:75:56:
        18:42:bf:31:dc:a9:e5:f7:61:79:d3:3e:e1:0d:ae:45:47:6b:
        3b:2e:f8:bd:75:9e:52:5c:a7:a0:84:86:59:00:4a:1b:8a:0a:
        85:47:63:f4:23:14:9a:e4:98:ea:9d:fb:04:c3:0c:52:b8:b2:
        fe:b5:50:72:e0:07:ff:c3:45:10:5e:19:72:8e:48:d0:16:29:
        d2:64:17:7c:2d:62:27:ec
-----BEGIN CERTIFICATE-----
MIIEXjCCAkagAwIBAgICEL8wDQYJKoZIhvcNAQELBQAwRTELMAkGA1UEBhMCQVUx
EzARBgNVBAgMClNvbWUtU3RhdGUxITAfBgNVBAoMGEludGVybmV0IFdpZGdpdHMg
UHR5IEx0ZDAeFw0yMzA1MDUxNjM0MjlaFw0zMzA1MDIxNjM0MjlaMDUxCzAJBgNV
BAYTAlVTMQ0wCwYDVQQKDARGRVVQMRcwFQYDVQQDDA5hZG1pbmJvdC5tYy5heDCC
ASIwDQYJKoZIhvcNAQEBBQADggEPADCCAQoCggEBAJtuphn9wwRXefZ1AZHKlhjc
Y3uPb+SQFemuIPAHH46qvRsaZnv3vh/sqx8DyPWGTZ4LzwXHNeEuBdbK3jqb2vqZ
kNofKwZ3GO34/83YyRyX47MlWijhQuww1qXVRvOAo3Eto/1m/+5kSYhOCBJ7aIDE
5H5UsYBmlZrYCBvWiOIsk6nx6e9odtcd5gAEAYTsmT3AKh/R7mlEOQESDYU5C9Vq
7n82fUP1BX5c2gLOgYSXeLHrDqpcNwqtUnxW89Wwh0HEwWNo1BZCwWSIkVHYOtOr
lz9M7L3ymUCs+w0vcR7CDQx/DvPuSSGL6LmoTOJGy73c+Yj6iusP/9D/Mem8AwcC
AwEAAaNoMGYwCQYDVR0TBAIwADAdBgNVHQ4EFgQUrQvB2frrfCaUcqh7Jx+gZkGl
Et4wHwYDVR0jBBgwFoAUjq3auhYaHBHiAtwLZ5w2+n3sOC0wGQYDVR0RBBIwEIIO
YWRtaW5ib3QubWMuYXgwDQYJKoZIhvcNAQELBQADggIBAASQHCCMvbLbhWB8ELnf
rxmZ30AfJHKvXXiIGd+ve8t4caLROsdI5pxkiVRxqbXmLDa+i8n16n1b9YaIZEi8
L08f9KSH4BV54RqW76xNoBSS6Ab+IdXadEy9bWkqjn/yEWVrC9/WC5LsKA9jcX2l
Wq5UVEGtieuD93R+a9sZ1byDPVrdXSn88wdc+bNpjrJQpVpq2XSgNJ+R8Gny/FBu
fAkIHUzU0qVu+xwa/lv9UQFfzJFh10orVczjO4hnEBtEIHsXuGGJQQc2uQ3F8l1S
3RXkbft8OJ+Lo1CFqBU1xh2FmQKY5W5p7WJud07BcjHN41Kc2J02pQcJnD3IcyhH
xV90owwa4hterQAnCUtriObR25OMj1hFYjQMzA8rWA6LR+Es920BGML8CsAV4GQZ
bAYFHRXEeAxt1NTZ8ev4/sW/aApCVHr20Fy6ZcAv1msLPK0zzmz9bCNeUimnzk26
MBIL3j0D4B5OWQ7P3pFKmJDTB3nxs2fcxsIh783KR8hiGc3jXvap3TndQp6AsZWv
77C0s5ptwI0YbEUc8xw3IcfNqLPPLYZKgkIURXYB1iR1VhhCvzHcqeX3YXnTPuEN
rkVHazsu+L11nlJcp6CEhlkAShuKCoVHY/QjFJrkmOqd+wTDDFK4sv61UHLgB//D
RRBeGXKOSNAWKdJkF3wtYifs
-----END CERTIFICATE-----
